target datalayout = "e-m:e-p270:32:32-p271:32:32-p272:64:64-i64:64-i128:128-f80:128-n8:16:32:64-S128"
target triple = "x86_64-pc-linux-gnu"

%struct.EventTriggerQueryState = type { ptr, %struct.slist_head, i8, i32, i32, i8, ptr, ptr, ptr }
%struct.slist_head = type { %struct.slist_node }
%struct.slist_node = type { ptr }

@currentEventTriggerState = internal global ptr null, align 8

; Function Attrs: nounwind uwtable
define dso_local void @EventTriggerEndCompleteQuery() #0 {
  %1 = alloca ptr, align 8
  call void @llvm.lifetime.start.p0(i64 8, ptr %1) #10
  %2 = load ptr, ptr @currentEventTriggerState, align 8
  %3 = getelementptr inbounds nuw %struct.EventTriggerQueryState, ptr %2, i32 0, i32 8
  %4 = load ptr, ptr %3, align 8
  store ptr %4, ptr %1, align 8
  %5 = load ptr, ptr @currentEventTriggerState, align 8
  %6 = getelementptr inbounds nuw %struct.EventTriggerQueryState, ptr %5, i32 0, i32 0
  %7 = load ptr, ptr %6, align 8
  call void @MemoryContextDelete(ptr noundef %7)
  %8 = load ptr, ptr %1, align 8
  store ptr %8, ptr @currentEventTriggerState, align 8
  call void @llvm.lifetime.end.p0(i64 8, ptr %1) #10
  ret void
}