; Function Attrs: nounwind uwtable
define dso_local void @EventTriggerEndCompleteQuery() local_unnamed_addr #0 {
  %1 = load ptr, ptr @currentEventTriggerState, align 8
  %2 = getelementptr inbounds nuw i8, ptr %1, i64 48
  %3 = load ptr, ptr %2, align 8
  %4 = load ptr, ptr %1, align 8
  tail call void @MemoryContextDelete(ptr noundef %4) #16
  store ptr %3, ptr @currentEventTriggerState, align 8
  ret void
}